; Function Attrs: nofree norecurse nosync nounwind memory(argmem: readwrite) uwtable
define range(i32 -173, 1) i32 @wc_Sha384FinalRaw(ptr noundef captures(address_is_null) %0, ptr noundef writeonly captures(address_is_null) %1) local_unnamed_addr #2 {
  %3 = icmp eq ptr %0, null
  %4 = icmp eq ptr %1, null
  %or.cond = or i1 %3, %4
  br i1 %or.cond, label %8, label %.lr.ph.i

.lr.ph.i:                                         ; preds = %2, %.lr.ph.i
  %indvars.iv.i = phi i64 [ %indvars.iv.next.i, %.lr.ph.i ], [ 0, %2 ]
  %5 = getelementptr inbounds nuw i64, ptr %0, i64 %indvars.iv.i
  %6 = load i64, ptr %5, align 8, !tbaa !10
  %7 = tail call noundef i64 @llvm.bswap.i64(i64 %6)
  store i64 %7, ptr %5, align 8, !tbaa !10
  %indvars.iv.next.i = add nuw nsw i64 %indvars.iv.i, 1
  %exitcond.not.i = icmp eq i64 %indvars.iv.next.i, 6
  br i1 %exitcond.not.i, label %ByteReverseWords64.exit, label %.lr.ph.i, !llvm.loop !14

ByteReverseWords64.exit:                          ; preds = %.lr.ph.i
  tail call void @llvm.memcpy.p0.p0.i64(ptr noundef nonnull align 1 dereferenceable(48) %1, ptr noundef nonnull align 8 dereferenceable(48) %0, i64 48, i1 false)
  br label %8

8:                                                ; preds = %2, %ByteReverseWords64.exit
  %.0 = phi i32 [ 0, %ByteReverseWords64.exit ], [ -173, %2 ]
  ret i32 %.0
}